target datalayout = "e-m:e-p270:32:32-p271:32:32-p272:64:64-i64:64-i128:128-f80:128-n8:16:32:64-S128"
target triple = "x86_64-pc-linux-gnu"

; Function Attrs: nounwind uwtable
define dso_local i32 @archive_read_support_format_zip(ptr noundef %0) #0 {
  %2 = alloca i32, align 4
  %3 = alloca ptr, align 8
  %4 = alloca i32, align 4
  %5 = alloca i32, align 4
  store ptr %0, ptr %3, align 8, !tbaa !4
  call void @llvm.lifetime.start.p0(i64 4, ptr %4) #11
  %6 = load ptr, ptr %3, align 8, !tbaa !4
  %7 = call i32 @archive_read_support_format_zip_streamable(ptr noundef %6)
  store i32 %7, ptr %4, align 4, !tbaa !9
  %8 = load i32, ptr %4, align 4, !tbaa !9
  %9 = icmp ne i32 %8, 0
  br i1 %9, label %10, label %12

10:                                               ; preds = %1
  %11 = load i32, ptr %4, align 4, !tbaa !9
  store i32 %11, ptr %2, align 4
  store i32 1, ptr %5, align 4
  br label %15

12:                                               ; preds = %1
  %13 = load ptr, ptr %3, align 8, !tbaa !4
  %14 = call i32 @archive_read_support_format_zip_seekable(ptr noundef %13)
  store i32 %14, ptr %2, align 4
  store i32 1, ptr %5, align 4
  br label %15

15:                                               ; preds = %12, %10
  call void @llvm.lifetime.end.p0(i64 4, ptr %4) #11
  %16 = load i32, ptr %2, align 4
  ret i32 %16
}