; Function Attrs: nounwind uwtable
define dso_local range(i32 -30, 1) i32 @archive_read_support_format_zip(ptr noundef %0) local_unnamed_addr #0 {
  %2 = tail call i32 @archive_read_support_format_zip_streamable(ptr noundef %0)
  %.not = icmp eq i32 %2, 0
  br i1 %.not, label %3, label %5

3:                                                ; preds = %1
  %4 = tail call i32 @archive_read_support_format_zip_seekable(ptr noundef %0)
  br label %5

5:                                                ; preds = %1, %3
  %.0 = phi i32 [ %4, %3 ], [ %2, %1 ]
  ret i32 %.0
}